(lp0
(dp1
S'step_time'
p2
F1.0
sS'stim'
p3
I2
sS'iti'
p4
F6.0
sa(dp5
g2
F0.5
sg3
I0
sg4
F6.0
sa(dp6
g2
F1.0
sg3
I3
sg4
F8.0
sa(dp7
g2
F0.5
sg3
I2
sg4
F6.0
sa(dp8
g2
F1.0
sg3
I0
sg4
F7.0
sa(dp9
g2
F1.0
sg3
I3
sg4
F8.0
sa(dp10
g2
F0.5
sg3
I1
sg4
F7.0
sa(dp11
g2
F0.75
sg3
I3
sg4
F7.0
sa(dp12
g2
F1.0
sg3
I1
sg4
F7.0
sa(dp13
g2
F0.5
sg3
I2
sg4
F8.0
sa(dp14
g2
F0.75
sg3
I2
sg4
F8.0
sa(dp15
g2
F1.0
sg3
I1
sg4
F6.0
sa(dp16
g2
F0.5
sg3
I3
sg4
F6.0
sa(dp17
g2
F1.0
sg3
I0
sg4
F6.0
sa(dp18
g2
F1.0
sg3
I1
sg4
F7.0
sa(dp19
g2
F0.5
sg3
I0
sg4
F8.0
sa(dp20
g2
F1.0
sg3
I3
sg4
F6.0
sa(dp21
g2
F0.5
sg3
I0
sg4
F7.0
sa(dp22
g2
F0.75
sg3
I2
sg4
F7.0
sa(dp23
g2
F0.5
sg3
I1
sg4
F8.0
sa(dp24
g2
F0.5
sg3
I0
sg4
F8.0
sa(dp25
g2
F1.0
sg3
I2
sg4
F6.0
sa(dp26
g2
F0.75
sg3
I3
sg4
F7.0
sa(dp27
g2
F0.75
sg3
I1
sg4
F6.0
sa(dp28
g2
F0.75
sg3
I3
sg4
F6.0
sa(dp29
g2
F0.5
sg3
I3
sg4
F7.0
sa(dp30
g2
F1.0
sg3
I0
sg4
F6.0
sa(dp31
g2
F0.75
sg3
I1
sg4
F8.0
sa(dp32
g2
F0.75
sg3
I2
sg4
F7.0
sa(dp33
g2
F0.5
sg3
I3
sg4
F8.0
sa(dp34
g2
F0.5
sg3
I2
sg4
F7.0
sa(dp35
g2
F1.0
sg3
I0
sg4
F7.0
sa(dp36
g2
F0.75
sg3
I0
sg4
F6.0
sa(dp37
g2
F0.75
sg3
I1
sg4
F7.0
sa(dp38
g2
F1.0
sg3
I2
sg4
F7.0
sa(dp39
g2
F0.75
sg3
I1
sg4
F8.0
sa(dp40
g2
F0.75
sg3
I1
sg4
F8.0
sa(dp41
g2
F1.0
sg3
I0
sg4
F8.0
sa(dp42
g2
F1.0
sg3
I2
sg4
F6.0
sa(dp43
g2
F0.5
sg3
I3
sg4
F0.0
sa.(lp0
(dp1
S'step_time'
p2
F0.75
sS'stim'
p3
I0
sS'iti'
p4
F7.0
sa(dp5
g2
F1.0
sg3
I3
sg4
F8.0
sa(dp6
g2
F0.5
sg3
I1
sg4
F7.0
sa(dp7
g2
F1.0
sg3
I3
sg4
F7.0
sa(dp8
g2
F0.75
sg3
I2
sg4
F7.0
sa(dp9
g2
F1.0
sg3
I3
sg4
F8.0
sa(dp10
g2
F1.0
sg3
I2
sg4
F7.0
sa(dp11
g2
F1.0
sg3
I1
sg4
F6.0
sa(dp12
g2
F1.0
sg3
I3
sg4
F6.0
sa(dp13
g2
F1.0
sg3
I2
sg4
F6.0
sa(dp14
g2
F0.5
sg3
I0
sg4
F7.0
sa(dp15
g2
F0.75
sg3
I1
sg4
F6.0
sa(dp16
g2
F0.75
sg3
I3
sg4
F8.0
sa(dp17
g2
F0.5
sg3
I0
sg4
F7.0
sa(dp18
g2
F0.5
sg3
I1
sg4
F8.0
sa(dp19
g2
F0.75
sg3
I0
sg4
F6.0
sa(dp20
g2
F0.75
sg3
I3
sg4
F7.0
sa(dp21
g2
F0.5
sg3
I0
sg4
F7.0
sa(dp22
g2
F0.5
sg3
I2
sg4
F8.0
sa(dp23
g2
F0.75
sg3
I1
sg4
F7.0
sa(dp24
g2
F0.5
sg3
I0
sg4
F6.0
sa(dp25
g2
F1.0
sg3
I3
sg4
F8.0
sa(dp26
g2
F0.75
sg3
I2
sg4
F6.0
sa(dp27
g2
F0.75
sg3
I1
sg4
F6.0
sa(dp28
g2
F0.75
sg3
I3
sg4
F6.0
sa(dp29
g2
F0.5
sg3
I2
sg4
F7.0
sa(dp30
g2
F1.0
sg3
I0
sg4
F6.0
sa(dp31
g2
F0.5
sg3
I1
sg4
F6.0
sa(dp32
g2
F0.75
sg3
I2
sg4
F6.0
sa(dp33
g2
F1.0
sg3
I3
sg4
F6.0
sa(dp34
g2
F0.75
sg3
I2
sg4
F8.0
sa(dp35
g2
F0.75
sg3
I0
sg4
F6.0
sa(dp36
g2
F1.0
sg3
I0
sg4
F8.0
sa(dp37
g2
F0.75
sg3
I1
sg4
F6.0
sa(dp38
g2
F0.5
sg3
I2
sg4
F6.0
sa(dp39
g2
F0.5
sg3
I1
sg4
F6.0
sa(dp40
g2
F1.0
sg3
I1
sg4
F8.0
sa(dp41
g2
F0.5
sg3
I0
sg4
F6.0
sa(dp42
g2
F0.5
sg3
I2
sg4
F6.0
sa(dp43
g2
F0.5
sg3
I3
sg4
F0.0
sa.